target datalayout = "e-m:e-p270:32:32-p271:32:32-p272:64:64-i64:64-i128:128-f80:128-n8:16:32:64-S128"
target triple = "x86_64-pc-linux-gnu"

%struct.cbc_cipher_handles = type { i32, ptr }

@cbc_handle = internal global [3 x { i32, [4 x i8], ptr }] [{ i32, [4 x i8], ptr } { i32 16, [4 x i8] zeroinitializer, ptr null }, { i32, [4 x i8], ptr } { i32 24, [4 x i8] zeroinitializer, ptr null }, { i32, [4 x i8], ptr } { i32 32, [4 x i8] zeroinitializer, ptr null }], align 16

; Function Attrs: nounwind uwtable
define internal ptr @get_cipher_handle(i32 noundef %0) #0 {
  %2 = alloca ptr, align 8
  %3 = alloca i32, align 4
  store i32 %0, ptr %3, align 4, !tbaa !20
  %4 = load i32, ptr %3, align 4, !tbaa !20
  switch i32 %4, label %8 [
    i32 419, label %5
    i32 423, label %6
    i32 427, label %7
  ]

5:                                                ; preds = %1
  store ptr @cbc_handle, ptr %2, align 8
  br label %9

6:                                                ; preds = %1
  store ptr getelementptr inbounds ([3 x %struct.cbc_cipher_handles], ptr @cbc_handle, i64 0, i64 1), ptr %2, align 8
  br label %9

7:                                                ; preds = %1
  store ptr getelementptr inbounds ([3 x %struct.cbc_cipher_handles], ptr @cbc_handle, i64 0, i64 2), ptr %2, align 8
  br label %9

8:                                                ; preds = %1
  store ptr null, ptr %2, align 8
  br label %9

9:                                                ; preds = %8, %7, %6, %5
  %10 = load ptr, ptr %2, align 8
  ret ptr %10
}

; Function Attrs: nounwind uwtable
define internal ptr @afalg_aes_cbc(i32 noundef %0) #0 {
  %2 = alloca ptr, align 8
  %3 = alloca i32, align 4
  %4 = alloca ptr, align 8
  %5 = alloca i32, align 4
  store i32 %0, ptr %3, align 4, !tbaa !20
  call void @llvm.lifetime.start.p0(i64 8, ptr %4) #11
  %6 = load i32, ptr %3, align 4, !tbaa !20
  %7 = call ptr @get_cipher_handle(i32 noundef %6)
  store ptr %7, ptr %4, align 8, !tbaa !29
  %8 = load ptr, ptr %4, align 8, !tbaa !29
  %9 = icmp eq ptr %8, null
  br i1 %9, label %10, label %11

10:                                               ; preds = %1
  store ptr null, ptr %2, align 8
  store i32 1, ptr %5, align 4
  br label %71

11:                                               ; preds = %1
  %12 = load ptr, ptr %4, align 8, !tbaa !29
  %13 = getelementptr inbounds nuw %struct.cbc_cipher_handles, ptr %12, i32 0, i32 1
  %14 = load ptr, ptr %13, align 8, !tbaa !31
  %15 = icmp eq ptr %14, null
  br i1 %15, label %16, label %67

16:                                               ; preds = %11
  %17 = load i32, ptr %3, align 4, !tbaa !20
  %18 = load ptr, ptr %4, align 8, !tbaa !29
  %19 = getelementptr inbounds nuw %struct.cbc_cipher_handles, ptr %18, i32 0, i32 0
  %20 = load i32, ptr %19, align 8, !tbaa !34
  %21 = call ptr @EVP_CIPHER_meth_new(i32 noundef %17, i32 noundef 16, i32 noundef %20)
  %22 = load ptr, ptr %4, align 8, !tbaa !29
  %23 = getelementptr inbounds nuw %struct.cbc_cipher_handles, ptr %22, i32 0, i32 1
  store ptr %21, ptr %23, align 8, !tbaa !31
  %24 = icmp eq ptr %21, null
  br i1 %24, label %61, label %25

25:                                               ; preds = %16
  %26 = load ptr, ptr %4, align 8, !tbaa !29
  %27 = getelementptr inbounds nuw %struct.cbc_cipher_handles, ptr %26, i32 0, i32 1
  %28 = load ptr, ptr %27, align 8, !tbaa !31
  %29 = call i32 @EVP_CIPHER_meth_set_iv_length(ptr noundef %28, i32 noundef 16)
  %30 = icmp ne i32 %29, 0
  br i1 %30, label %31, label %61

31:                                               ; preds = %25
  %32 = load ptr, ptr %4, align 8, !tbaa !29
  %33 = getelementptr inbounds nuw %struct.cbc_cipher_handles, ptr %32, i32 0, i32 1
  %34 = load ptr, ptr %33, align 8, !tbaa !31
  %35 = call i32 @EVP_CIPHER_meth_set_flags(ptr noundef %34, i64 noundef 2)
  %36 = icmp ne i32 %35, 0
  br i1 %36, label %37, label %61

37:                                               ; preds = %31
  %38 = load ptr, ptr %4, align 8, !tbaa !29
  %39 = getelementptr inbounds nuw %struct.cbc_cipher_handles, ptr %38, i32 0, i32 1
  %40 = load ptr, ptr %39, align 8, !tbaa !31
  %41 = call i32 @EVP_CIPHER_meth_set_init(ptr noundef %40, ptr noundef @afalg_cipher_init)
  %42 = icmp ne i32 %41, 0
  br i1 %42, label %43, label %61

43:                                               ; preds = %37
  %44 = load ptr, ptr %4, align 8, !tbaa !29
  %45 = getelementptr inbounds nuw %struct.cbc_cipher_handles, ptr %44, i32 0, i32 1
  %46 = load ptr, ptr %45, align 8, !tbaa !31
  %47 = call i32 @EVP_CIPHER_meth_set_do_cipher(ptr noundef %46, ptr noundef @afalg_do_cipher)
  %48 = icmp ne i32 %47, 0
  br i1 %48, label %49, label %61

49:                                               ; preds = %43
  %50 = load ptr, ptr %4, align 8, !tbaa !29
  %51 = getelementptr inbounds nuw %struct.cbc_cipher_handles, ptr %50, i32 0, i32 1
  %52 = load ptr, ptr %51, align 8, !tbaa !31
  %53 = call i32 @EVP_CIPHER_meth_set_cleanup(ptr noundef %52, ptr noundef @afalg_cipher_cleanup)
  %54 = icmp ne i32 %53, 0
  br i1 %54, label %55, label %61

55:                                               ; preds = %49
  %56 = load ptr, ptr %4, align 8, !tbaa !29
  %57 = getelementptr inbounds nuw %struct.cbc_cipher_handles, ptr %56, i32 0, i32 1
  %58 = load ptr, ptr %57, align 8, !tbaa !31
  %59 = call i32 @EVP_CIPHER_meth_set_impl_ctx_size(ptr noundef %58, i32 noundef 128)
  %60 = icmp ne i32 %59, 0
  br i1 %60, label %67, label %61

61:                                               ; preds = %55, %49, %43, %37, %31, %25, %16
  %62 = load ptr, ptr %4, align 8, !tbaa !29
  %63 = getelementptr inbounds nuw %struct.cbc_cipher_handles, ptr %62, i32 0, i32 1
  %64 = load ptr, ptr %63, align 8, !tbaa !31
  call void @EVP_CIPHER_meth_free(ptr noundef %64)
  %65 = load ptr, ptr %4, align 8, !tbaa !29
  %66 = getelementptr inbounds nuw %struct.cbc_cipher_handles, ptr %65, i32 0, i32 1
  store ptr null, ptr %66, align 8, !tbaa !31
  br label %67

67:                                               ; preds = %61, %55, %11
  %68 = load ptr, ptr %4, align 8, !tbaa !29
  %69 = getelementptr inbounds nuw %struct.cbc_cipher_handles, ptr %68, i32 0, i32 1
  %70 = load ptr, ptr %69, align 8, !tbaa !31
  store ptr %70, ptr %2, align 8
  store i32 1, ptr %5, align 4
  br label %71

71:                                               ; preds = %67, %10
  call void @llvm.lifetime.end.p0(i64 8, ptr %4) #11
  %72 = load ptr, ptr %2, align 8
  ret ptr %72
}