; Function Attrs: nounwind uwtable
define internal fastcc ptr @afalg_aes_cbc(i32 noundef %0) unnamed_addr #1 {
  switch i32 %0, label %get_cipher_handle.exit [
    i32 419, label %4
    i32 423, label %2
    i32 427, label %3
  ]

2:                                                ; preds = %1
  br label %4

3:                                                ; preds = %1
  br label %4

4:                                                ; preds = %3, %2, %1
  %.0.i.ph = phi ptr [ @cbc_handle, %1 ], [ getelementptr inbounds nuw (i8, ptr @cbc_handle, i64 16), %2 ], [ getelementptr inbounds nuw (i8, ptr @cbc_handle, i64 32), %3 ]
  %5 = getelementptr inbounds nuw i8, ptr %.0.i.ph, i64 8
  %6 = load ptr, ptr %5, align 8, !tbaa !19
  %7 = icmp eq ptr %6, null
  br i1 %7, label %8, label %get_cipher_handle.exit

8:                                                ; preds = %4
  %9 = load i32, ptr %.0.i.ph, align 8, !tbaa !23
  %10 = tail call ptr @EVP_CIPHER_meth_new(i32 noundef %0, i32 noundef 16, i32 noundef %9) #13
  store ptr %10, ptr %5, align 8, !tbaa !19
  %11 = icmp eq ptr %10, null
  br i1 %11, label %._crit_edge, label %12

12:                                               ; preds = %8
  %13 = tail call i32 @EVP_CIPHER_meth_set_iv_length(ptr noundef nonnull %10, i32 noundef 16) #13
  %.not = icmp eq i32 %13, 0
  %.pre28 = load ptr, ptr %5, align 8, !tbaa !19
  br i1 %.not, label %._crit_edge, label %14

14:                                               ; preds = %12
  %15 = tail call i32 @EVP_CIPHER_meth_set_flags(ptr noundef %.pre28, i64 noundef 2) #13
  %.not17 = icmp eq i32 %15, 0
  %.pre27 = load ptr, ptr %5, align 8, !tbaa !19
  br i1 %.not17, label %._crit_edge, label %16

16:                                               ; preds = %14
  %17 = tail call i32 @EVP_CIPHER_meth_set_init(ptr noundef %.pre27, ptr noundef nonnull @afalg_cipher_init) #13
  %.not18 = icmp eq i32 %17, 0
  %.pre26 = load ptr, ptr %5, align 8, !tbaa !19
  br i1 %.not18, label %._crit_edge, label %18

18:                                               ; preds = %16
  %19 = tail call i32 @EVP_CIPHER_meth_set_do_cipher(ptr noundef %.pre26, ptr noundef nonnull @afalg_do_cipher) #13
  %.not19 = icmp eq i32 %19, 0
  %.pre25 = load ptr, ptr %5, align 8, !tbaa !19
  br i1 %.not19, label %._crit_edge, label %20

20:                                               ; preds = %18
  %21 = tail call i32 @EVP_CIPHER_meth_set_cleanup(ptr noundef %.pre25, ptr noundef nonnull @afalg_cipher_cleanup) #13
  %.not20 = icmp eq i32 %21, 0
  %.pre24 = load ptr, ptr %5, align 8, !tbaa !19
  br i1 %.not20, label %._crit_edge, label %22

22:                                               ; preds = %20
  %23 = tail call i32 @EVP_CIPHER_meth_set_impl_ctx_size(ptr noundef %.pre24, i32 noundef 128) #13
  %.not21 = icmp eq i32 %23, 0
  %.pre29 = load ptr, ptr %5, align 8, !tbaa !19
  br i1 %.not21, label %._crit_edge, label %get_cipher_handle.exit

._crit_edge:                                      ; preds = %22, %20, %18, %16, %14, %12, %8
  %24 = phi ptr [ %.pre24, %20 ], [ %.pre25, %18 ], [ %.pre26, %16 ], [ %.pre27, %14 ], [ %.pre28, %12 ], [ null, %8 ], [ %.pre29, %22 ]
  tail call void @EVP_CIPHER_meth_free(ptr noundef %24) #13
  store ptr null, ptr %5, align 8, !tbaa !19
  br label %get_cipher_handle.exit

get_cipher_handle.exit:                           ; preds = %4, %22, %._crit_edge, %1
  %.0 = phi ptr [ null, %1 ], [ null, %._crit_edge ], [ %.pre29, %22 ], [ %6, %4 ]
  ret ptr %.0
}